target datalayout = "e-m:e-p270:32:32-p271:32:32-p272:64:64-i64:64-i128:128-f80:128-n8:16:32:64-S128"
target triple = "x86_64-pc-linux-gnu"

%struct.JsonPathItem = type { i32, i32, ptr, %union.anon }
%union.anon = type { %struct.anon.5 }
%struct.anon.5 = type { i32, ptr, i32, i32 }
%struct.anon.2 = type { i32, ptr }
%struct.anon.6 = type { i32, i32 }

; Function Attrs: nounwind uwtable
define dso_local zeroext i1 @jspGetArraySubscript(ptr noundef %0, ptr noundef %1, ptr noundef %2, i32 noundef %3) #0 {
  %5 = alloca i1, align 1
  %6 = alloca ptr, align 8
  %7 = alloca ptr, align 8
  %8 = alloca ptr, align 8
  %9 = alloca i32, align 4
  store ptr %0, ptr %6, align 8
  store ptr %1, ptr %7, align 8
  store ptr %2, ptr %8, align 8
  store i32 %3, ptr %9, align 4
  %10 = load ptr, ptr %7, align 8
  %11 = load ptr, ptr %6, align 8
  %12 = getelementptr inbounds nuw %struct.JsonPathItem, ptr %11, i32 0, i32 2
  %13 = load ptr, ptr %12, align 8
  %14 = load ptr, ptr %6, align 8
  %15 = getelementptr inbounds nuw %struct.JsonPathItem, ptr %14, i32 0, i32 3
  %16 = getelementptr inbounds nuw %struct.anon.2, ptr %15, i32 0, i32 1
  %17 = load ptr, ptr %16, align 8
  %18 = load i32, ptr %9, align 4
  %19 = sext i32 %18 to i64
  %20 = getelementptr inbounds %struct.anon.6, ptr %17, i64 %19
  %21 = getelementptr inbounds nuw %struct.anon.6, ptr %20, i32 0, i32 0
  %22 = load i32, ptr %21, align 4
  call void @jspInitByBuffer(ptr noundef %10, ptr noundef %13, i32 noundef %22)
  %23 = load ptr, ptr %6, align 8
  %24 = getelementptr inbounds nuw %struct.JsonPathItem, ptr %23, i32 0, i32 3
  %25 = getelementptr inbounds nuw %struct.anon.2, ptr %24, i32 0, i32 1
  %26 = load ptr, ptr %25, align 8
  %27 = load i32, ptr %9, align 4
  %28 = sext i32 %27 to i64
  %29 = getelementptr inbounds %struct.anon.6, ptr %26, i64 %28
  %30 = getelementptr inbounds nuw %struct.anon.6, ptr %29, i32 0, i32 1
  %31 = load i32, ptr %30, align 4
  %32 = icmp ne i32 %31, 0
  br i1 %32, label %34, label %33

33:                                               ; preds = %4
  store i1 false, ptr %5, align 1
  br label %48

34:                                               ; preds = %4
  %35 = load ptr, ptr %8, align 8
  %36 = load ptr, ptr %6, align 8
  %37 = getelementptr inbounds nuw %struct.JsonPathItem, ptr %36, i32 0, i32 2
  %38 = load ptr, ptr %37, align 8
  %39 = load ptr, ptr %6, align 8
  %40 = getelementptr inbounds nuw %struct.JsonPathItem, ptr %39, i32 0, i32 3
  %41 = getelementptr inbounds nuw %struct.anon.2, ptr %40, i32 0, i32 1
  %42 = load ptr, ptr %41, align 8
  %43 = load i32, ptr %9, align 4
  %44 = sext i32 %43 to i64
  %45 = getelementptr inbounds %struct.anon.6, ptr %42, i64 %44
  %46 = getelementptr inbounds nuw %struct.anon.6, ptr %45, i32 0, i32 1
  %47 = load i32, ptr %46, align 4
  call void @jspInitByBuffer(ptr noundef %35, ptr noundef %38, i32 noundef %47)
  store i1 true, ptr %5, align 1
  br label %48

48:                                               ; preds = %34, %33
  %49 = load i1, ptr %5, align 1
  ret i1 %49
}