; Function Attrs: nounwind uwtable
define dso_local noundef zeroext i1 @jspGetArraySubscript(ptr noundef readonly captures(none) %0, ptr noundef captures(none) initializes((0, 16)) %1, ptr noundef captures(none) %2, i32 noundef %3) local_unnamed_addr #0 {
  %5 = getelementptr inbounds nuw i8, ptr %0, i64 8
  %6 = load ptr, ptr %5, align 8
  %7 = getelementptr inbounds nuw i8, ptr %0, i64 24
  %8 = load ptr, ptr %7, align 8
  %9 = sext i32 %3 to i64
  %10 = getelementptr inbounds %struct.anon.6, ptr %8, i64 %9
  %11 = load i32, ptr %10, align 4
  tail call void @jspInitByBuffer(ptr noundef %1, ptr noundef %6, i32 noundef %11)
  %12 = load ptr, ptr %7, align 8
  %13 = getelementptr inbounds %struct.anon.6, ptr %12, i64 %9, i32 1
  %14 = load i32, ptr %13, align 4
  %.not = icmp ne i32 %14, 0
  br i1 %.not, label %15, label %17

15:                                               ; preds = %4
  %16 = load ptr, ptr %5, align 8
  tail call void @jspInitByBuffer(ptr noundef %2, ptr noundef %16, i32 noundef %14)
  br label %17

17:                                               ; preds = %4, %15
  ret i1 %.not
}